target datalayout = "e-m:e-p270:32:32-p271:32:32-p272:64:64-i64:64-i128:128-f80:128-n8:16:32:64-S128"
target triple = "x86_64-pc-linux-gnu"

%struct.ma_node_base = type { ptr, ptr, ptr, i16, i16, i16, i16, i32, [2 x i64], i64, i32, i32, ptr, ptr, [2 x %struct.ma_node_input_bus], [2 x %struct.ma_node_output_bus], ptr, i32 }
%struct.ma_node_input_bus = type { %struct.ma_node_output_bus, i32, i32, i8 }
%struct.ma_node_output_bus = type { ptr, i8, i8, i8, i32, i32, i32, i32, float, ptr, ptr, ptr }

; Function Attrs: nounwind uwtable
define internal i32 @ma_node_output_bus_get_channels(ptr noundef %0) #0 {
  %2 = alloca ptr, align 8
  store ptr %0, ptr %2, align 8, !tbaa !1355
  %3 = load ptr, ptr %2, align 8, !tbaa !1355
  %4 = getelementptr inbounds nuw %struct.ma_node_output_bus, ptr %3, i32 0, i32 2
  %5 = load i8, ptr %4, align 1, !tbaa !1358
  %6 = zext i8 %5 to i32
  ret i32 %6
}

; Function Attrs: nounwind uwtable
define i32 @ma_node_get_output_bus_count(ptr noundef %0) #0 {
  %2 = alloca i32, align 4
  %3 = alloca ptr, align 8
  store ptr %0, ptr %3, align 8, !tbaa !25
  %4 = load ptr, ptr %3, align 8, !tbaa !25
  %5 = icmp eq ptr %4, null
  br i1 %5, label %6, label %7

6:                                                ; preds = %1
  store i32 0, ptr %2, align 4
  br label %11

7:                                                ; preds = %1
  %8 = load ptr, ptr %3, align 8, !tbaa !25
  %9 = getelementptr inbounds nuw %struct.ma_node_base, ptr %8, i32 0, i32 11
  %10 = load i32, ptr %9, align 4, !tbaa !1345
  store i32 %10, ptr %2, align 4
  br label %11

11:                                               ; preds = %7, %6
  %12 = load i32, ptr %2, align 4
  ret i32 %12
}

; Function Attrs: nounwind uwtable
define i32 @ma_node_get_output_channels(ptr noundef %0, i32 noundef %1) #0 {
  %3 = alloca i32, align 4
  %4 = alloca ptr, align 8
  %5 = alloca i32, align 4
  %6 = alloca ptr, align 8
  %7 = alloca i32, align 4
  store ptr %0, ptr %4, align 8, !tbaa !25
  store i32 %1, ptr %5, align 4, !tbaa !8
  call void @llvm.lifetime.start.p0(i64 8, ptr %6) #16
  %8 = load ptr, ptr %4, align 8, !tbaa !25
  store ptr %8, ptr %6, align 8, !tbaa !1315
  %9 = load ptr, ptr %4, align 8, !tbaa !25
  %10 = icmp eq ptr %9, null
  br i1 %10, label %11, label %12

11:                                               ; preds = %2
  store i32 0, ptr %3, align 4
  store i32 1, ptr %7, align 4
  br label %26

12:                                               ; preds = %2
  %13 = load i32, ptr %5, align 4, !tbaa !8
  %14 = load ptr, ptr %4, align 8, !tbaa !25
  %15 = call i32 @ma_node_get_output_bus_count(ptr noundef %14)
  %16 = icmp uge i32 %13, %15
  br i1 %16, label %17, label %18

17:                                               ; preds = %12
  store i32 0, ptr %3, align 4
  store i32 1, ptr %7, align 4
  br label %26

18:                                               ; preds = %12
  %19 = load ptr, ptr %6, align 8, !tbaa !1315
  %20 = getelementptr inbounds nuw %struct.ma_node_base, ptr %19, i32 0, i32 13
  %21 = load ptr, ptr %20, align 8, !tbaa !1319
  %22 = load i32, ptr %5, align 4, !tbaa !8
  %23 = zext i32 %22 to i64
  %24 = getelementptr inbounds nuw %struct.ma_node_output_bus, ptr %21, i64 %23
  %25 = call i32 @ma_node_output_bus_get_channels(ptr noundef %24)
  store i32 %25, ptr %3, align 4
  store i32 1, ptr %7, align 4
  br label %26

26:                                               ; preds = %18, %17, %11
  call void @llvm.lifetime.end.p0(i64 8, ptr %6) #16
  %27 = load i32, ptr %3, align 4
  ret i32 %27
}