; Function Attrs: mustprogress nofree norecurse nosync nounwind willreturn memory(read, inaccessiblemem: none) uwtable
define range(i32 0, 256) i32 @ma_node_get_output_channels(ptr noundef readonly captures(address_is_null) %0, i32 noundef %1) local_unnamed_addr #24 {
  %3 = icmp eq ptr %0, null
  br i1 %3, label %12, label %ma_node_get_output_bus_count.exit

ma_node_get_output_bus_count.exit:                ; preds = %2
  %4 = getelementptr inbounds nuw i8, ptr %0, i64 68
  %5 = load i32, ptr %4, align 4, !tbaa !1670
  %.not = icmp ult i32 %1, %5
  br i1 %.not, label %6, label %12

6:                                                ; preds = %ma_node_get_output_bus_count.exit
  %7 = getelementptr inbounds nuw i8, ptr %0, i64 80
  %8 = load ptr, ptr %7, align 8, !tbaa !1677
  %9 = zext i32 %1 to i64
  %10 = getelementptr %struct.ma_node_output_bus, ptr %8, i64 %9, i32 2
  %.val = load i8, ptr %10, align 1, !tbaa !1685
  %11 = zext i8 %.val to i32
  br label %12

12:                                               ; preds = %ma_node_get_output_bus_count.exit, %2, %6
  %.0 = phi i32 [ %11, %6 ], [ 0, %2 ], [ 0, %ma_node_get_output_bus_count.exit ]
  ret i32 %.0
}